; Function Attrs: nounwind uwtable
define ptr @l_Lean_getConstInfoCtor___rarg(ptr noundef %0, ptr noundef %1, ptr noundef %2, ptr noundef %3) #0 {
  %5 = getelementptr inbounds nuw i8, ptr %0, i64 16
  %6 = load ptr, ptr %5, align 8, !tbaa !10
  %7 = ptrtoint ptr %6 to i64
  %8 = and i64 %7, 1
  %.not = icmp eq i64 %8, 0
  br i1 %.not, label %9, label %lean_inc.exit21

9:                                                ; preds = %4
  %.val.i = load i32, ptr %6, align 4, !tbaa !4
  %10 = icmp sgt i32 %.val.i, 0
  br i1 %10, label %11, label %13, !prof !9

11:                                               ; preds = %9
  %12 = add nuw i32 %.val.i, 1
  store i32 %12, ptr %6, align 4, !tbaa !4
  br label %lean_inc.exit21

13:                                               ; preds = %9
  %.not.i = icmp eq i32 %.val.i, 0
  br i1 %.not.i, label %lean_inc.exit21, label %14

14:                                               ; preds = %13
  tail call void @lean_inc_ref_cold(ptr noundef nonnull %6) #4
  br label %lean_inc.exit21

lean_inc.exit21:                                  ; preds = %14, %13, %11, %4
  %15 = ptrtoint ptr %3 to i64
  %16 = and i64 %15, 1
  %.not31 = icmp eq i64 %16, 0
  br i1 %.not31, label %17, label %lean_inc.exit20

17:                                               ; preds = %lean_inc.exit21
  %.val.i22 = load i32, ptr %3, align 4, !tbaa !4
  %18 = icmp sgt i32 %.val.i22, 0
  br i1 %18, label %19, label %21, !prof !9

19:                                               ; preds = %17
  %20 = add nuw i32 %.val.i22, 1
  store i32 %20, ptr %3, align 4, !tbaa !4
  br label %lean_inc.exit20

21:                                               ; preds = %17
  %.not.i23 = icmp eq i32 %.val.i22, 0
  br i1 %.not.i23, label %lean_inc.exit20, label %22

22:                                               ; preds = %21
  tail call void @lean_inc_ref_cold(ptr noundef nonnull %3) #4
  br label %lean_inc.exit20

lean_inc.exit20:                                  ; preds = %22, %21, %19, %lean_inc.exit21
  %23 = ptrtoint ptr %2 to i64
  %24 = and i64 %23, 1
  %.not32 = icmp eq i64 %24, 0
  br i1 %.not32, label %25, label %lean_inc.exit19

25:                                               ; preds = %lean_inc.exit20
  %.val.i25 = load i32, ptr %2, align 4, !tbaa !4
  %26 = icmp sgt i32 %.val.i25, 0
  br i1 %26, label %27, label %29, !prof !9

27:                                               ; preds = %25
  %28 = add nuw i32 %.val.i25, 1
  store i32 %28, ptr %2, align 4, !tbaa !4
  br label %lean_inc.exit19

29:                                               ; preds = %25
  %.not.i26 = icmp eq i32 %.val.i25, 0
  br i1 %.not.i26, label %lean_inc.exit19, label %30

30:                                               ; preds = %29
  tail call void @lean_inc_ref_cold(ptr noundef nonnull %2) #4
  br label %lean_inc.exit19

lean_inc.exit19:                                  ; preds = %30, %29, %27, %lean_inc.exit20
  %31 = ptrtoint ptr %0 to i64
  %32 = and i64 %31, 1
  %.not33 = icmp eq i64 %32, 0
  br i1 %.not33, label %33, label %lean_inc.exit

33:                                               ; preds = %lean_inc.exit19
  %.val.i28 = load i32, ptr %0, align 4, !tbaa !4
  %34 = icmp sgt i32 %.val.i28, 0
  br i1 %34, label %35, label %37, !prof !9

35:                                               ; preds = %33
  %36 = add nuw i32 %.val.i28, 1
  store i32 %36, ptr %0, align 4, !tbaa !4
  br label %lean_inc.exit

37:                                               ; preds = %33
  %.not.i29 = icmp eq i32 %.val.i28, 0
  br i1 %.not.i29, label %lean_inc.exit, label %38

38:                                               ; preds = %37
  tail call void @lean_inc_ref_cold(ptr noundef nonnull %0) #4
  br label %lean_inc.exit

lean_inc.exit:                                    ; preds = %38, %37, %35, %lean_inc.exit19
  %39 = tail call ptr @l_Lean_getConstInfo___rarg(ptr noundef nonnull %0, ptr noundef %1, ptr noundef %2, ptr noundef %3)
  tail call void @lean_inc_heartbeat() #4
  %40 = tail call noalias ptr @mi_malloc_small(i64 noundef 48) #4
  %41 = icmp eq ptr %40, null
  br i1 %41, label %42, label %lean_alloc_closure.exit

42:                                               ; preds = %lean_inc.exit
  tail call void @lean_internal_panic_out_of_memory() #5
  unreachable

lean_alloc_closure.exit:                          ; preds = %lean_inc.exit
  %43 = getelementptr inbounds nuw i8, ptr %40, i64 4
  store i32 1, ptr %40, align 4, !tbaa !4
  store i32 -184549328, ptr %43, align 4
  %44 = getelementptr inbounds nuw i8, ptr %40, i64 8
  store ptr @l_Lean_getConstInfoCtor___rarg___lambda__1, ptr %44, align 8, !tbaa !10
  %45 = getelementptr inbounds nuw i8, ptr %40, i64 16
  store i16 4, ptr %45, align 8, !tbaa !12
  %46 = getelementptr inbounds nuw i8, ptr %40, i64 18
  store i16 3, ptr %46, align 2, !tbaa !12
  %47 = getelementptr inbounds nuw i8, ptr %40, i64 24
  store ptr %3, ptr %47, align 8, !tbaa !10
  %48 = getelementptr inbounds nuw i8, ptr %40, i64 32
  store ptr %0, ptr %48, align 8, !tbaa !10
  %49 = getelementptr inbounds nuw i8, ptr %40, i64 40
  store ptr %2, ptr %49, align 8, !tbaa !10
  %50 = tail call ptr @lean_apply_4(ptr noundef %6, ptr noundef nonnull inttoptr (i64 1 to ptr), ptr noundef nonnull inttoptr (i64 1 to ptr), ptr noundef %39, ptr noundef nonnull %40) #4
  ret ptr %50
}